target datalayout = "e-m:e-p270:32:32-p271:32:32-p272:64:64-i64:64-i128:128-f80:128-n8:16:32:64-S128"
target triple = "x86_64-pc-linux-gnu"

%"class.opt::lns" = type { ptr, ptr, ptr, %class.random_gen, %class.ref_vector, %class.ref_vector, i32, i32, i8, i8, i32, %class.rational, %class.ref, %class.scoped_ptr, %class.vector.0, %class.obj_mark, %class.obj_mark }
%class.random_gen = type { i32 }
%class.ref_vector = type { %class.ref_vector_core }
%class.ref_vector_core = type { %class.ref_manager_wrapper, %class.ptr_vector }
%class.ref_manager_wrapper = type { ptr }
%class.ptr_vector = type { %class.vector }
%class.vector = type { ptr }
%class.rational = type { %class.mpq }
%class.mpq = type { %class.mpz, %class.mpz }
%class.mpz = type { i32, i8, ptr }
%class.ref = type { ptr }
%class.scoped_ptr = type { ptr }
%class.vector.0 = type { ptr }
%class.obj_mark = type { [8 x i8], %class.bit_vector }
%class.bit_vector = type { i32, i32, ptr }
%class.symbol = type { ptr }
%"struct.opt::lns::scoped_bounding" = type <{ ptr, i8, [7 x i8] }>
%class.ast_manager = type { %class.reslimit, %class.small_object_allocator, %class.family_manager, %class.parray_manager, %class.dependency_manager, %class.parray_manager.14, %class.ptr_vector.17, i32, i8, %class.ast_table, %class.obj_map, %class.id_gen, %class.id_gen, ptr, ptr, ptr, ptr, ptr, i32, i8, [3 x i8], %class.u_map, ptr, i8, i8, ptr, %class.symbol, %class.obj_map.25, ptr }
%class.reslimit = type { %"struct.std::atomic", i8, i64, i64, %class.svector, %class.ptr_vector.3 }
%"struct.std::atomic" = type { %"struct.std::__atomic_base" }
%"struct.std::__atomic_base" = type { i32 }
%class.svector = type { %class.vector.2 }
%class.vector.2 = type { ptr }
%class.ptr_vector.3 = type { %class.vector.4 }
%class.vector.4 = type { ptr }
%class.small_object_allocator = type { [32 x ptr], [32 x ptr], i64 }
%class.family_manager = type { i32, %class.symbol_table, %class.svector.8 }
%class.symbol_table = type { %class.core_hashtable, %class.vector.5, %class.svector.6 }
%class.core_hashtable = type <{ ptr, i32, i32, i32, [4 x i8] }>
%class.vector.5 = type { ptr }
%class.svector.6 = type { %class.vector.7 }
%class.vector.7 = type { ptr }
%class.svector.8 = type { %class.vector.9 }
%class.vector.9 = type { ptr }
%class.parray_manager = type { ptr, ptr, %class.ptr_vector.10, %class.ptr_vector.10 }
%class.ptr_vector.10 = type { %class.vector.11 }
%class.vector.11 = type { ptr }
%class.dependency_manager = type { ptr, ptr, %class.ptr_vector.12 }
%class.ptr_vector.12 = type { %class.vector.13 }
%class.vector.13 = type { ptr }
%class.parray_manager.14 = type { ptr, ptr, %class.ptr_vector.15, %class.ptr_vector.15 }
%class.ptr_vector.15 = type { %class.vector.16 }
%class.vector.16 = type { ptr }
%class.ptr_vector.17 = type { %class.vector.18 }
%class.vector.18 = type { ptr }
%class.ast_table = type { %class.chashtable }
%class.chashtable = type { ptr, i32, i32, i32, i32, i32, i32, i32, ptr, ptr, ptr }
%class.obj_map = type { %class.core_hashtable.19 }
%class.core_hashtable.19 = type <{ ptr, i32, i32, i32, [4 x i8] }>
%class.id_gen = type { i32, %class.svector.21 }
%class.svector.21 = type { %class.vector.22 }
%class.vector.22 = type { ptr }
%class.u_map = type { %class.map }
%class.map = type { %class.table2map }
%class.table2map = type { %class.core_hashtable.23 }
%class.core_hashtable.23 = type <{ ptr, i32, i32, i32, [4 x i8] }>
%class.obj_map.25 = type { %class.core_hashtable.26 }
%class.core_hashtable.26 = type <{ ptr, i32, i32, i32, [4 x i8] }>

; Function Attrs: mustprogress nounwind uwtable
define linkonce_odr hidden noundef nonnull align 8 dereferenceable(40) ptr @_ZN11ast_manager5limitEv(ptr noundef nonnull align 8 dereferenceable(976) %0) #4 comdat align 2 {
  %2 = alloca ptr, align 8
  store ptr %0, ptr %2, align 8, !tbaa !36
  %3 = load ptr, ptr %2, align 8
  %4 = getelementptr inbounds nuw %class.ast_manager, ptr %3, i32 0, i32 0
  ret ptr %4
}

; Function Attrs: mustprogress uwtable
define linkonce_odr hidden noundef zeroext i1 @_ZN11ast_manager3incEv(ptr noundef nonnull align 8 dereferenceable(976) %0) #6 comdat align 2 {
  %2 = alloca ptr, align 8
  store ptr %0, ptr %2, align 8, !tbaa !36
  %3 = load ptr, ptr %2, align 8
  %4 = call noundef nonnull align 8 dereferenceable(40) ptr @_ZN11ast_manager5limitEv(ptr noundef nonnull align 8 dereferenceable(976) %3)
  %5 = call noundef zeroext i1 @_ZN8reslimit3incEv(ptr noundef nonnull align 8 dereferenceable(40) %4)
  ret i1 %5
}

; Function Attrs: mustprogress uwtable
define hidden noundef i32 @_ZN3opt3lns14improve_linearER3refI5modelE(ptr noundef nonnull align 8 dereferenceable(184) %0, ptr noundef nonnull align 8 dereferenceable(8) %1) #6 align 2 personality ptr @__gxx_personality_v0 {
  %3 = alloca ptr, align 8
  %4 = alloca ptr, align 8
  %5 = alloca %"struct.opt::lns::scoped_bounding", align 8
  %6 = alloca i32, align 4
  %7 = alloca i32, align 4
  %8 = alloca ptr, align 8
  %9 = alloca i32, align 4
  %10 = alloca i32, align 4
  %11 = alloca i32, align 4
  store ptr %0, ptr %3, align 8, !tbaa !28
  store ptr %1, ptr %4, align 8, !tbaa !73
  %12 = load ptr, ptr %3, align 8
  call void @llvm.lifetime.start.p0(i64 16, ptr %5) #3
  call void @_ZN3opt3lns15scoped_boundingC2ERS0_(ptr noundef nonnull align 8 dereferenceable(9) %5, ptr noundef nonnull align 8 dereferenceable(184) %12)
  call void @llvm.lifetime.start.p0(i64 4, ptr %6) #3
  store i32 0, ptr %6, align 4, !tbaa !8
  call void @llvm.lifetime.start.p0(i64 4, ptr %7) #3
  %13 = getelementptr inbounds nuw %"class.opt::lns", ptr %12, i32 0, i32 6
  %14 = load i32, ptr %13, align 8, !tbaa !62
  store i32 %14, ptr %7, align 4, !tbaa !8
  br label %15

15:                                               ; preds = %48, %2
  %16 = getelementptr inbounds nuw %"class.opt::lns", ptr %12, i32 0, i32 0
  %17 = load ptr, ptr %16, align 8, !tbaa !38
  %18 = invoke noundef zeroext i1 @_ZN11ast_manager3incEv(ptr noundef nonnull align 8 dereferenceable(976) %17)
          to label %19 unwind label %27

19:                                               ; preds = %15
  br i1 %18, label %20, label %49

20:                                               ; preds = %19
  call void @llvm.lifetime.start.p0(i64 4, ptr %10) #3
  %21 = load ptr, ptr %4, align 8, !tbaa !73
  %22 = invoke noundef i32 @_ZN3opt3lns12improve_stepER3refI5modelE(ptr noundef nonnull align 8 dereferenceable(184) %12, ptr noundef nonnull align 8 dereferenceable(8) %21)
          to label %23 unwind label %31

23:                                               ; preds = %20
  store i32 %22, ptr %10, align 4, !tbaa !8
  %24 = load i32, ptr %10, align 4, !tbaa !8
  %25 = icmp eq i32 %24, 0
  br i1 %25, label %26, label %35

26:                                               ; preds = %23
  store i32 3, ptr %11, align 4
  br label %46

27:                                               ; preds = %15
  %28 = landingpad { ptr, i32 }
          cleanup
  %29 = extractvalue { ptr, i32 } %28, 0
  store ptr %29, ptr %8, align 8
  %30 = extractvalue { ptr, i32 } %28, 1
  store i32 %30, ptr %9, align 4
  br label %53

31:                                               ; preds = %35, %20
  %32 = landingpad { ptr, i32 }
          cleanup
  %33 = extractvalue { ptr, i32 } %32, 0
  store ptr %33, ptr %8, align 8
  %34 = extractvalue { ptr, i32 } %32, 1
  store i32 %34, ptr %9, align 4
  call void @llvm.lifetime.end.p0(i64 4, ptr %10) #3
  br label %53

35:                                               ; preds = %23
  %36 = load i32, ptr %10, align 4, !tbaa !8
  %37 = load i32, ptr %6, align 4, !tbaa !8
  %38 = add i32 %37, %36
  store i32 %38, ptr %6, align 4, !tbaa !8
  %39 = getelementptr inbounds nuw %"class.opt::lns", ptr %12, i32 0, i32 6
  %40 = load i32, ptr %39, align 8, !tbaa !62
  %41 = mul i32 %40, 3
  store i32 %41, ptr %39, align 8, !tbaa !62
  %42 = getelementptr inbounds nuw %"class.opt::lns", ptr %12, i32 0, i32 6
  %43 = load i32, ptr %42, align 8, !tbaa !62
  %44 = udiv i32 %43, 2
  store i32 %44, ptr %42, align 8, !tbaa !62
  invoke void @_ZN3opt3lns14set_lns_paramsEv(ptr noundef nonnull align 8 dereferenceable(184) %12)
          to label %45 unwind label %31

45:                                               ; preds = %35
  store i32 0, ptr %11, align 4
  br label %46

46:                                               ; preds = %45, %26
  call void @llvm.lifetime.end.p0(i64 4, ptr %10) #3
  %47 = load i32, ptr %11, align 4
  switch i32 %47, label %59 [
    i32 0, label %48
    i32 3, label %49
  ]

48:                                               ; preds = %46
  br label %15, !llvm.loop !129

49:                                               ; preds = %46, %19
  %50 = load i32, ptr %7, align 4, !tbaa !8
  %51 = getelementptr inbounds nuw %"class.opt::lns", ptr %12, i32 0, i32 6
  store i32 %50, ptr %51, align 8, !tbaa !62
  %52 = load i32, ptr %6, align 4, !tbaa !8
  store i32 1, ptr %11, align 4
  call void @llvm.lifetime.end.p0(i64 4, ptr %7) #3
  call void @llvm.lifetime.end.p0(i64 4, ptr %6) #3
  call void @_ZN3opt3lns15scoped_boundingD2Ev(ptr noundef nonnull align 8 dereferenceable(9) %5) #3
  call void @llvm.lifetime.end.p0(i64 16, ptr %5) #3
  ret i32 %52

53:                                               ; preds = %31, %27
  call void @llvm.lifetime.end.p0(i64 4, ptr %7) #3
  call void @llvm.lifetime.end.p0(i64 4, ptr %6) #3
  call void @_ZN3opt3lns15scoped_boundingD2Ev(ptr noundef nonnull align 8 dereferenceable(9) %5) #3
  call void @llvm.lifetime.end.p0(i64 16, ptr %5) #3
  br label %54

54:                                               ; preds = %53
  %55 = load ptr, ptr %8, align 8
  %56 = load i32, ptr %9, align 4
  %57 = insertvalue { ptr, i32 } poison, ptr %55, 0
  %58 = insertvalue { ptr, i32 } %57, i32 %56, 1
  resume { ptr, i32 } %58

59:                                               ; preds = %46
  unreachable
}