; Function Attrs: mustprogress uwtable
define hidden noundef i32 @_ZN3opt3lns14improve_linearER3refI5modelE(ptr noundef nonnull align 8 dereferenceable(184) %0, ptr noundef nonnull align 8 dereferenceable(8) %1) local_unnamed_addr #4 align 2 personality ptr @__gxx_personality_v0 {
  %3 = alloca %"struct.opt::lns::scoped_bounding", align 8
  call void @llvm.lifetime.start.p0(i64 16, ptr nonnull %3) #20
  call void @_ZN3opt3lns15scoped_boundingC2ERS0_(ptr noundef nonnull align 8 dereferenceable(9) %3, ptr noundef nonnull align 8 dereferenceable(184) %0)
  %4 = getelementptr inbounds nuw i8, ptr %0, i64 64
  %5 = load i32, ptr %4, align 8, !tbaa !21
  br label %6

6:                                                ; preds = %21, %2
  %.09 = phi i32 [ 0, %2 ], [ %22, %21 ]
  %7 = load ptr, ptr %0, align 8, !tbaa !88
  %8 = invoke noundef zeroext i1 @_ZN8reslimit3incEv(ptr noundef nonnull align 8 dereferenceable(976) %7)
          to label %_ZN11ast_manager3incEv.exit unwind label %13

_ZN11ast_manager3incEv.exit:                      ; preds = %6
  br i1 %8, label %9, label %.thread

9:                                                ; preds = %_ZN11ast_manager3incEv.exit
  %10 = invoke noundef i32 @_ZN3opt3lns12improve_stepER3refI5modelE(ptr noundef nonnull align 8 dereferenceable(184) %0, ptr noundef nonnull align 8 dereferenceable(8) %1)
          to label %11 unwind label %15

11:                                               ; preds = %9
  %12 = icmp eq i32 %10, 0
  br i1 %12, label %.thread, label %17

13:                                               ; preds = %6
  %14 = landingpad { ptr, i32 }
          cleanup
  br label %39

15:                                               ; preds = %17, %9
  %16 = landingpad { ptr, i32 }
          cleanup
  br label %39

17:                                               ; preds = %11
  %18 = load i32, ptr %4, align 8, !tbaa !21
  %19 = mul i32 %18, 3
  %20 = lshr i32 %19, 1
  store i32 %20, ptr %4, align 8, !tbaa !21
  invoke void @_ZN3opt3lns14set_lns_paramsEv(ptr noundef nonnull align 8 dereferenceable(184) %0)
          to label %21 unwind label %15

21:                                               ; preds = %17
  %22 = add i32 %10, %.09
  br label %6

.thread:                                          ; preds = %11, %_ZN11ast_manager3incEv.exit
  store i32 %5, ptr %4, align 8, !tbaa !21
  %23 = load ptr, ptr %3, align 8, !tbaa !101
  %24 = getelementptr inbounds nuw i8, ptr %23, i64 73
  %25 = load i8, ptr %24, align 1, !tbaa !44, !range !93, !noundef !94
  %26 = trunc nuw i8 %25 to i1
  br i1 %26, label %27, label %_ZN3opt3lns15scoped_boundingD2Ev.exit

27:                                               ; preds = %.thread
  %28 = getelementptr inbounds nuw i8, ptr %3, i64 8
  %29 = load i8, ptr %28, align 8, !tbaa !104, !range !93, !noundef !94
  %30 = getelementptr inbounds nuw i8, ptr %23, i64 72
  store i8 %29, ptr %30, align 8, !tbaa !43
  %31 = getelementptr inbounds nuw i8, ptr %23, i64 8
  %32 = load ptr, ptr %31, align 8, !tbaa !74
  %33 = load ptr, ptr %32, align 8, !tbaa !3
  %34 = getelementptr inbounds nuw i8, ptr %33, i64 200
  %35 = load ptr, ptr %34, align 8
  invoke void %35(ptr noundef nonnull align 8 dereferenceable(96) %32, i32 noundef 1)
          to label %_ZN3opt3lns15scoped_boundingD2Ev.exit unwind label %36

36:                                               ; preds = %27
  %37 = landingpad { ptr, i32 }
          catch ptr null
  %38 = extractvalue { ptr, i32 } %37, 0
  call void @__clang_call_terminate(ptr %38) #19
  unreachable

_ZN3opt3lns15scoped_boundingD2Ev.exit:            ; preds = %.thread, %27
  call void @llvm.lifetime.end.p0(i64 16, ptr nonnull %3) #20
  ret i32 %.09

39:                                               ; preds = %15, %13
  %.pn = phi { ptr, i32 } [ %16, %15 ], [ %14, %13 ]
  call void @_ZN3opt3lns15scoped_boundingD2Ev(ptr noundef nonnull align 8 dereferenceable(9) %3) #20
  call void @llvm.lifetime.end.p0(i64 16, ptr nonnull %3) #20
  resume { ptr, i32 } %.pn
}